target datalayout = "e-m:e-p270:32:32-p271:32:32-p272:64:64-i64:64-i128:128-f80:128-n8:16:32:64-S128"
target triple = "x86_64-pc-linux-gnu"

%struct.connection = type { ptr, i32, i32, i32, i16, i16, i16, ptr, ptr, ptr, ptr, ptr }

; Function Attrs: nounwind uwtable
define internal ptr @connCreateUnix(ptr noundef %0) #0 {
  %2 = alloca ptr, align 8
  %3 = alloca ptr, align 8
  store ptr %0, ptr %2, align 8, !tbaa !10
  call void @llvm.lifetime.start.p0(i64 8, ptr %3) #7
  %4 = call noalias ptr @zcalloc(i64 noundef 72) #10
  store ptr %4, ptr %3, align 8, !tbaa !5
  %5 = load ptr, ptr %3, align 8, !tbaa !5
  %6 = getelementptr inbounds nuw %struct.connection, ptr %5, i32 0, i32 0
  store ptr @CT_Unix, ptr %6, align 8, !tbaa !61
  %7 = load ptr, ptr %3, align 8, !tbaa !5
  %8 = getelementptr inbounds nuw %struct.connection, ptr %7, i32 0, i32 3
  store i32 -1, ptr %8, align 8, !tbaa !64
  %9 = load ptr, ptr %3, align 8, !tbaa !5
  %10 = getelementptr inbounds nuw %struct.connection, ptr %9, i32 0, i32 6
  store i16 1024, ptr %10, align 8, !tbaa !65
  %11 = load ptr, ptr %2, align 8, !tbaa !10
  %12 = load ptr, ptr %3, align 8, !tbaa !5
  %13 = getelementptr inbounds nuw %struct.connection, ptr %12, i32 0, i32 8
  store ptr %11, ptr %13, align 8, !tbaa !66
  %14 = load ptr, ptr %3, align 8, !tbaa !5
  call void @llvm.lifetime.end.p0(i64 8, ptr %3) #7
  ret ptr %14
}