; Function Attrs: nounwind uwtable
define internal noalias noundef ptr @connCreateUnix(ptr noundef %0) #0 {
  %2 = tail call noalias dereferenceable_or_null(72) ptr @zcalloc(i64 noundef 72) #10
  store ptr @CT_Unix, ptr %2, align 8, !tbaa !43
  %3 = getelementptr inbounds nuw i8, ptr %2, i64 16
  store i32 -1, ptr %3, align 8, !tbaa !48
  %4 = getelementptr inbounds nuw i8, ptr %2, i64 24
  store i16 1024, ptr %4, align 8, !tbaa !46
  %5 = getelementptr inbounds nuw i8, ptr %2, i64 40
  store ptr %0, ptr %5, align 8, !tbaa !47
  ret ptr %2
}